; Function Attrs: mustprogress nofree norecurse nosync nounwind willreturn memory(read, inaccessiblemem: none) uwtable
define hidden noundef zeroext i1 @_Z8in_powerRK7svectorIjjEj(ptr noundef nonnull readonly align 8 captures(none) dereferenceable(8) %0, i32 noundef %1) local_unnamed_addr #9 {
  %3 = load ptr, ptr %0, align 8, !tbaa !188
  %4 = zext i32 %1 to i64
  %5 = getelementptr inbounds nuw i32, ptr %3, i64 %4
  %6 = load i32, ptr %5, align 4, !tbaa !249
  %.not = icmp eq i32 %1, 0
  br i1 %.not, label %_ZNK6vectorIjLb0EjE4sizeEv.exit, label %7

7:                                                ; preds = %2
  %8 = add i32 %1, -1
  %9 = zext i32 %8 to i64
  %10 = getelementptr inbounds nuw i32, ptr %3, i64 %9
  %11 = load i32, ptr %10, align 4, !tbaa !249
  %12 = icmp eq i32 %11, %6
  br i1 %12, label %22, label %_ZNK6vectorIjLb0EjE4sizeEv.exit

_ZNK6vectorIjLb0EjE4sizeEv.exit:                  ; preds = %7, %2
  %13 = add i32 %1, 1
  %14 = getelementptr inbounds i8, ptr %3, i64 -4
  %15 = load i32, ptr %14, align 4, !tbaa !249
  %16 = icmp ult i32 %13, %15
  br i1 %16, label %17, label %22

17:                                               ; preds = %_ZNK6vectorIjLb0EjE4sizeEv.exit
  %18 = zext i32 %13 to i64
  %19 = getelementptr inbounds nuw i32, ptr %3, i64 %18
  %20 = load i32, ptr %19, align 4, !tbaa !249
  %21 = icmp eq i32 %6, %20
  br label %22

22:                                               ; preds = %_ZNK6vectorIjLb0EjE4sizeEv.exit, %17, %7
  %23 = phi i1 [ true, %7 ], [ false, %_ZNK6vectorIjLb0EjE4sizeEv.exit ], [ %21, %17 ]
  ret i1 %23
}